target datalayout = "e-m:e-p270:32:32-p271:32:32-p272:64:64-i64:64-i128:128-f80:128-n8:16:32:64-S128"
target triple = "x86_64-pc-linux-gnu"

%struct.prov_idea_ctx_st = type { %struct.prov_cipher_ctx_st, %union.anon.0 }
%struct.prov_cipher_ctx_st = type { [16 x i8], [16 x i8], [16 x i8], ptr, %union.anon, i32, i64, i64, i64, i64, i32, i8, i32, ptr, i32, i64, i32, i64, i32, ptr, ptr, ptr }
%union.anon = type { ptr }
%union.anon.0 = type { double, [208 x i8] }

; Function Attrs: nounwind uwtable
define internal i32 @cipher_hw_idea_cfb64_cipher(ptr noundef %0, ptr noundef %1, ptr noundef %2, i64 noundef %3) #0 {
  %5 = alloca ptr, align 8
  %6 = alloca ptr, align 8
  %7 = alloca ptr, align 8
  %8 = alloca i64, align 8
  %9 = alloca i64, align 8
  %10 = alloca ptr, align 8
  %11 = alloca i32, align 4
  store ptr %0, ptr %5, align 8, !tbaa !7
  store ptr %1, ptr %6, align 8, !tbaa !10
  store ptr %2, ptr %7, align 8, !tbaa !10
  store i64 %3, ptr %8, align 8, !tbaa !3
  call void @llvm.lifetime.start.p0(i64 8, ptr %9) #3
  store i64 1073741824, ptr %9, align 8, !tbaa !3
  call void @llvm.lifetime.start.p0(i64 8, ptr %10) #3
  %12 = load ptr, ptr %5, align 8, !tbaa !7
  %13 = getelementptr inbounds nuw %struct.prov_idea_ctx_st, ptr %12, i32 0, i32 1
  store ptr %13, ptr %10, align 8, !tbaa !14
  call void @llvm.lifetime.start.p0(i64 4, ptr %11) #3
  %14 = load ptr, ptr %5, align 8, !tbaa !7
  %15 = getelementptr inbounds nuw %struct.prov_cipher_ctx_st, ptr %14, i32 0, i32 18
  %16 = load i32, ptr %15, align 8, !tbaa !23
  store i32 %16, ptr %11, align 4, !tbaa !24
  %17 = load i64, ptr %8, align 8, !tbaa !3
  %18 = load i64, ptr %9, align 8, !tbaa !3
  %19 = icmp ult i64 %17, %18
  br i1 %19, label %20, label %22

20:                                               ; preds = %4
  %21 = load i64, ptr %8, align 8, !tbaa !3
  store i64 %21, ptr %9, align 8, !tbaa !3
  br label %22

22:                                               ; preds = %20, %4
  br label %23

23:                                               ; preds = %60, %22
  %24 = load i64, ptr %8, align 8, !tbaa !3
  %25 = icmp ugt i64 %24, 0
  br i1 %25, label %26, label %30

26:                                               ; preds = %23
  %27 = load i64, ptr %8, align 8, !tbaa !3
  %28 = load i64, ptr %9, align 8, !tbaa !3
  %29 = icmp uge i64 %27, %28
  br label %30

30:                                               ; preds = %26, %23
  %31 = phi i1 [ false, %23 ], [ %29, %26 ]
  br i1 %31, label %32, label %61

32:                                               ; preds = %30
  %33 = load ptr, ptr %7, align 8, !tbaa !10
  %34 = load ptr, ptr %6, align 8, !tbaa !10
  %35 = load i64, ptr %9, align 8, !tbaa !3
  %36 = load ptr, ptr %10, align 8, !tbaa !14
  %37 = load ptr, ptr %5, align 8, !tbaa !7
  %38 = getelementptr inbounds nuw %struct.prov_cipher_ctx_st, ptr %37, i32 0, i32 2
  %39 = getelementptr inbounds [16 x i8], ptr %38, i64 0, i64 0
  %40 = load ptr, ptr %5, align 8, !tbaa !7
  %41 = getelementptr inbounds nuw %struct.prov_cipher_ctx_st, ptr %40, i32 0, i32 11
  %42 = load i8, ptr %41, align 4
  %43 = lshr i8 %42, 1
  %44 = and i8 %43, 1
  %45 = zext i8 %44 to i32
  call void @IDEA_cfb64_encrypt(ptr noundef %33, ptr noundef %34, i64 noundef %35, ptr noundef %36, ptr noundef %39, ptr noundef %11, i32 noundef %45)
  %46 = load i64, ptr %9, align 8, !tbaa !3
  %47 = load i64, ptr %8, align 8, !tbaa !3
  %48 = sub i64 %47, %46
  store i64 %48, ptr %8, align 8, !tbaa !3
  %49 = load i64, ptr %9, align 8, !tbaa !3
  %50 = load ptr, ptr %7, align 8, !tbaa !10
  %51 = getelementptr inbounds nuw i8, ptr %50, i64 %49
  store ptr %51, ptr %7, align 8, !tbaa !10
  %52 = load i64, ptr %9, align 8, !tbaa !3
  %53 = load ptr, ptr %6, align 8, !tbaa !10
  %54 = getelementptr inbounds nuw i8, ptr %53, i64 %52
  store ptr %54, ptr %6, align 8, !tbaa !10
  %55 = load i64, ptr %8, align 8, !tbaa !3
  %56 = load i64, ptr %9, align 8, !tbaa !3
  %57 = icmp ult i64 %55, %56
  br i1 %57, label %58, label %60

58:                                               ; preds = %32
  %59 = load i64, ptr %8, align 8, !tbaa !3
  store i64 %59, ptr %9, align 8, !tbaa !3
  br label %60

60:                                               ; preds = %58, %32
  br label %23, !llvm.loop !26

61:                                               ; preds = %30
  %62 = load i32, ptr %11, align 4, !tbaa !24
  %63 = load ptr, ptr %5, align 8, !tbaa !7
  %64 = getelementptr inbounds nuw %struct.prov_cipher_ctx_st, ptr %63, i32 0, i32 18
  store i32 %62, ptr %64, align 8, !tbaa !23
  call void @llvm.lifetime.end.p0(i64 4, ptr %11) #3
  call void @llvm.lifetime.end.p0(i64 8, ptr %10) #3
  call void @llvm.lifetime.end.p0(i64 8, ptr %9) #3
  ret i32 1
}