; Function Attrs: nounwind uwtable
define internal noundef i32 @cipher_hw_idea_cfb64_cipher(ptr noundef %0, ptr noundef %1, ptr noundef %2, i64 noundef %3) #1 {
  %5 = alloca i32, align 4
  %6 = getelementptr inbounds nuw i8, ptr %0, i64 192
  call void @llvm.lifetime.start.p0(i64 4, ptr nonnull %5) #5
  %7 = getelementptr inbounds nuw i8, ptr %0, i64 160
  %8 = load i32, ptr %7, align 8, !tbaa !15
  store i32 %8, ptr %5, align 4, !tbaa !16
  %.not = icmp eq i64 %3, 0
  br i1 %.not, label %._crit_edge, label %.lr.ph

.lr.ph:                                           ; preds = %4
  %spec.select = tail call i64 @llvm.umin.i64(i64 %3, i64 1073741824)
  %9 = getelementptr inbounds nuw i8, ptr %0, i64 32
  %10 = getelementptr inbounds nuw i8, ptr %0, i64 108
  br label %11

11:                                               ; preds = %.lr.ph, %11
  %.032 = phi ptr [ %1, %.lr.ph ], [ %18, %11 ]
  %.131 = phi i64 [ %spec.select, %.lr.ph ], [ %spec.select28, %11 ]
  %.02430 = phi i64 [ %3, %.lr.ph ], [ %16, %11 ]
  %.02529 = phi ptr [ %2, %.lr.ph ], [ %17, %11 ]
  %12 = load i8, ptr %10, align 4
  %13 = lshr i8 %12, 1
  %14 = and i8 %13, 1
  %15 = zext nneg i8 %14 to i32
  call void @IDEA_cfb64_encrypt(ptr noundef %.02529, ptr noundef %.032, i64 noundef %.131, ptr noundef nonnull %6, ptr noundef nonnull %9, ptr noundef nonnull %5, i32 noundef %15) #5
  %16 = sub nuw i64 %.02430, %.131
  %17 = getelementptr inbounds nuw i8, ptr %.02529, i64 %.131
  %18 = getelementptr inbounds nuw i8, ptr %.032, i64 %.131
  %spec.select28 = call i64 @llvm.umin.i64(i64 %16, i64 %.131)
  %.not33 = icmp eq i64 %16, 0
  br i1 %.not33, label %._crit_edge.loopexit, label %11, !llvm.loop !18

._crit_edge.loopexit:                             ; preds = %11
  %.pre = load i32, ptr %5, align 4, !tbaa !16
  br label %._crit_edge

._crit_edge:                                      ; preds = %._crit_edge.loopexit, %4
  %19 = phi i32 [ %.pre, %._crit_edge.loopexit ], [ %8, %4 ]
  store i32 %19, ptr %7, align 8, !tbaa !15
  call void @llvm.lifetime.end.p0(i64 4, ptr nonnull %5) #5
  ret i32 1
}